target datalayout = "e-m:e-p270:32:32-p271:32:32-p272:64:64-i64:64-i128:128-f80:128-n8:16:32:64-S128"
target triple = "x86_64-unknown-linux-gnu"

%"class.net::QuicStreamSequencer" = type <{ ptr, ptr, %"class.net::QuicStreamSequencerBuffer", i64, i8, [3 x i8], i32, i32, [4 x i8], ptr, i8, [7 x i8] }>
%"class.net::QuicStreamSequencerBuffer" = type { i64, i64, i64, %"class.std::__cxx11::list", i8, %"class.std::unique_ptr", i64, %"class.std::map" }
%"class.std::__cxx11::list" = type { %"class.std::__cxx11::_List_base" }
%"class.std::__cxx11::_List_base" = type { %"struct.std::__cxx11::_List_base<net::QuicStreamSequencerBuffer::Gap, std::allocator<net::QuicStreamSequencerBuffer::Gap>>::_List_impl" }
%"struct.std::__cxx11::_List_base<net::QuicStreamSequencerBuffer::Gap, std::allocator<net::QuicStreamSequencerBuffer::Gap>>::_List_impl" = type { %"struct.std::__detail::_List_node_header" }
%"struct.std::__detail::_List_node_header" = type { %"struct.std::__detail::_List_node_base", i64 }
%"struct.std::__detail::_List_node_base" = type { ptr, ptr }
%"class.std::unique_ptr" = type { %"struct.std::__uniq_ptr_data" }
%"struct.std::__uniq_ptr_data" = type { %"class.std::__uniq_ptr_impl" }
%"class.std::__uniq_ptr_impl" = type { %"class.std::tuple" }
%"class.std::tuple" = type { %"struct.std::_Tuple_impl" }
%"struct.std::_Tuple_impl" = type { %"struct.std::_Head_base.1" }
%"struct.std::_Head_base.1" = type { ptr }
%"class.std::map" = type { %"class.std::_Rb_tree" }
%"class.std::_Rb_tree" = type { %"struct.std::_Rb_tree<unsigned long, std::pair<const unsigned long, net::QuicStreamSequencerBuffer::FrameInfo>, std::_Select1st<std::pair<const unsigned long, net::QuicStreamSequencerBuffer::FrameInfo>>, std::less<unsigned long>>::_Rb_tree_impl" }
%"struct.std::_Rb_tree<unsigned long, std::pair<const unsigned long, net::QuicStreamSequencerBuffer::FrameInfo>, std::_Select1st<std::pair<const unsigned long, net::QuicStreamSequencerBuffer::FrameInfo>>, std::less<unsigned long>>::_Rb_tree_impl" = type { %"struct.std::_Rb_tree_key_compare", %"struct.std::_Rb_tree_header" }
%"struct.std::_Rb_tree_key_compare" = type { %"struct.std::less" }
%"struct.std::less" = type { i8 }
%"struct.std::_Rb_tree_header" = type { %"struct.std::_Rb_tree_node_base", i64 }
%"struct.std::_Rb_tree_node_base" = type { i32, ptr, ptr, ptr }

; Function Attrs: mustprogress uwtable
define dso_local noundef zeroext i1 @_ZNK3net19QuicStreamSequencer8IsClosedEv(ptr noundef nonnull align 8 dereferenceable(169) %this) #0 align 2 {
entry:
  %this.addr = alloca ptr, align 8
  store ptr %this, ptr %this.addr, align 8
  %this1 = load ptr, ptr %this.addr, align 8
  %buffered_frames_ = getelementptr inbounds %"class.net::QuicStreamSequencer", ptr %this1, i32 0, i32 2
  %call = call noundef i64 @_ZNK3net25QuicStreamSequencerBuffer13BytesConsumedEv(ptr noundef nonnull align 8 dereferenceable(120) %buffered_frames_)
  %close_offset_ = getelementptr inbounds %"class.net::QuicStreamSequencer", ptr %this1, i32 0, i32 3
  %0 = load i64, ptr %close_offset_, align 8
  %cmp = icmp uge i64 %call, %0
  ret i1 %cmp
}

; Function Attrs: mustprogress uwtable
define dso_local noundef zeroext i1 @_ZN3net19QuicStreamSequencer16MaybeCloseStreamEv(ptr noundef nonnull align 8 dereferenceable(169) %this) #0 align 2 {
entry:
  %retval = alloca i1, align 1
  %this.addr = alloca ptr, align 8
  store ptr %this, ptr %this.addr, align 8
  %this1 = load ptr, ptr %this.addr, align 8
  %blocked_ = getelementptr inbounds %"class.net::QuicStreamSequencer", ptr %this1, i32 0, i32 4
  %0 = load i8, ptr %blocked_, align 8
  %tobool = trunc i8 %0 to i1
  br i1 %tobool, label %if.then, label %lor.lhs.false

lor.lhs.false:                                    ; preds = %entry
  %call = call noundef zeroext i1 @_ZNK3net19QuicStreamSequencer8IsClosedEv(ptr noundef nonnull align 8 dereferenceable(169) %this1)
  br i1 %call, label %if.end, label %if.then

if.then:                                          ; preds = %lor.lhs.false, %entry
  store i1 false, ptr %retval, align 1
  br label %return

if.end:                                           ; preds = %lor.lhs.false
  %ignore_read_data_ = getelementptr inbounds %"class.net::QuicStreamSequencer", ptr %this1, i32 0, i32 10
  %1 = load i8, ptr %ignore_read_data_, align 8
  %tobool2 = trunc i8 %1 to i1
  br i1 %tobool2, label %if.then3, label %if.else

if.then3:                                         ; preds = %if.end
  %stream_ = getelementptr inbounds %"class.net::QuicStreamSequencer", ptr %this1, i32 0, i32 1
  %2 = load ptr, ptr %stream_, align 8
  call void @_ZN3net18ReliableQuicStream9OnFinReadEv(ptr noundef nonnull align 8 dereferenceable(377) %2)
  br label %if.end5

if.else:                                          ; preds = %if.end
  %stream_4 = getelementptr inbounds %"class.net::QuicStreamSequencer", ptr %this1, i32 0, i32 1
  %3 = load ptr, ptr %stream_4, align 8
  %vtable = load ptr, ptr %3, align 8
  %vfn = getelementptr inbounds ptr, ptr %vtable, i64 7
  %4 = load ptr, ptr %vfn, align 8
  call void %4(ptr noundef nonnull align 8 dereferenceable(377) %3)
  br label %if.end5

if.end5:                                          ; preds = %if.else, %if.then3
  %buffered_frames_ = getelementptr inbounds %"class.net::QuicStreamSequencer", ptr %this1, i32 0, i32 2
  call void @_ZN3net25QuicStreamSequencerBuffer5ClearEv(ptr noundef nonnull align 8 dereferenceable(120) %buffered_frames_)
  store i1 true, ptr %retval, align 1
  br label %return

return:                                           ; preds = %if.end5, %if.then
  %5 = load i1, ptr %retval, align 1
  ret i1 %5
}

; Function Attrs: mustprogress uwtable
define dso_local void @_ZN3net19QuicStreamSequencer19FlushBufferedFramesEv(ptr noundef nonnull align 8 dereferenceable(169) %this) #0 align 2 {
entry:
  %this.addr = alloca ptr, align 8
  %bytes_flushed = alloca i64, align 8
  store ptr %this, ptr %this.addr, align 8
  %this1 = load ptr, ptr %this.addr, align 8
  %buffered_frames_ = getelementptr inbounds %"class.net::QuicStreamSequencer", ptr %this1, i32 0, i32 2
  %call = call noundef i64 @_ZN3net25QuicStreamSequencerBuffer19FlushBufferedFramesEv(ptr noundef nonnull align 8 dereferenceable(120) %buffered_frames_)
  store i64 %call, ptr %bytes_flushed, align 8
  %stream_ = getelementptr inbounds %"class.net::QuicStreamSequencer", ptr %this1, i32 0, i32 1
  %0 = load ptr, ptr %stream_, align 8
  %1 = load i64, ptr %bytes_flushed, align 8
  call void @_ZN3net18ReliableQuicStream16AddBytesConsumedEm(ptr noundef nonnull align 8 dereferenceable(377) %0, i64 noundef %1)
  %call2 = call noundef zeroext i1 @_ZN3net19QuicStreamSequencer16MaybeCloseStreamEv(ptr noundef nonnull align 8 dereferenceable(169) %this1)
  ret void
}

; Function Attrs: mustprogress uwtable
define dso_local void @_ZN3net19QuicStreamSequencer11StopReadingEv(ptr noundef nonnull align 8 dereferenceable(169) %this) #0 align 2 {
entry:
  %this.addr = alloca ptr, align 8
  store ptr %this, ptr %this.addr, align 8
  %this1 = load ptr, ptr %this.addr, align 8
  %ignore_read_data_ = getelementptr inbounds %"class.net::QuicStreamSequencer", ptr %this1, i32 0, i32 10
  %0 = load i8, ptr %ignore_read_data_, align 8
  %tobool = trunc i8 %0 to i1
  br i1 %tobool, label %if.then, label %if.end

if.then:                                          ; preds = %entry
  br label %return

if.end:                                           ; preds = %entry
  %ignore_read_data_2 = getelementptr inbounds %"class.net::QuicStreamSequencer", ptr %this1, i32 0, i32 10
  store i8 1, ptr %ignore_read_data_2, align 8
  call void @_ZN3net19QuicStreamSequencer19FlushBufferedFramesEv(ptr noundef nonnull align 8 dereferenceable(169) %this1)
  br label %return

return:                                           ; preds = %if.end, %if.then
  ret void
}