; Function Attrs: mustprogress uwtable
define dso_local void @_ZN3net19QuicStreamSequencer11StopReadingEv(ptr noundef nonnull align 8 dereferenceable(169) %this) local_unnamed_addr #0 align 2 {
entry:
  %ignore_read_data_ = getelementptr inbounds i8, ptr %this, i64 168
  %0 = load i8, ptr %ignore_read_data_, align 8
  %1 = and i8 %0, 1
  %tobool.not = icmp eq i8 %1, 0
  br i1 %tobool.not, label %if.end, label %return

if.end:                                           ; preds = %entry
  store i8 1, ptr %ignore_read_data_, align 8
  %buffered_frames_.i = getelementptr inbounds i8, ptr %this, i64 16
  %call.i = tail call noundef i64 @_ZN3net25QuicStreamSequencerBuffer19FlushBufferedFramesEv(ptr noundef nonnull align 8 dereferenceable(120) %buffered_frames_.i)
  %stream_.i = getelementptr inbounds i8, ptr %this, i64 8
  %2 = load ptr, ptr %stream_.i, align 8
  tail call void @_ZN3net18ReliableQuicStream16AddBytesConsumedEm(ptr noundef nonnull align 8 dereferenceable(377) %2, i64 noundef %call.i)
  %blocked_.i.i = getelementptr inbounds i8, ptr %this, i64 144
  %3 = load i8, ptr %blocked_.i.i, align 8
  %4 = and i8 %3, 1
  %tobool.not.i.i = icmp eq i8 %4, 0
  br i1 %tobool.not.i.i, label %lor.lhs.false.i.i, label %return

lor.lhs.false.i.i:                                ; preds = %if.end
  %call.i.i.i = tail call noundef i64 @_ZNK3net25QuicStreamSequencerBuffer13BytesConsumedEv(ptr noundef nonnull align 8 dereferenceable(120) %buffered_frames_.i)
  %close_offset_.i.i.i = getelementptr inbounds i8, ptr %this, i64 136
  %5 = load i64, ptr %close_offset_.i.i.i, align 8
  %cmp.i.not.i.i = icmp ult i64 %call.i.i.i, %5
  br i1 %cmp.i.not.i.i, label %return, label %if.end.i.i

if.end.i.i:                                       ; preds = %lor.lhs.false.i.i
  %6 = load i8, ptr %ignore_read_data_, align 8
  %7 = and i8 %6, 1
  %tobool2.not.i.i = icmp eq i8 %7, 0
  %8 = load ptr, ptr %stream_.i, align 8
  br i1 %tobool2.not.i.i, label %if.else.i.i, label %if.then3.i.i

if.then3.i.i:                                     ; preds = %if.end.i.i
  tail call void @_ZN3net18ReliableQuicStream9OnFinReadEv(ptr noundef nonnull align 8 dereferenceable(377) %8)
  br label %if.end5.i.i

if.else.i.i:                                      ; preds = %if.end.i.i
  %vtable.i.i = load ptr, ptr %8, align 8
  %vfn.i.i = getelementptr inbounds i8, ptr %vtable.i.i, i64 56
  %9 = load ptr, ptr %vfn.i.i, align 8
  tail call void %9(ptr noundef nonnull align 8 dereferenceable(377) %8)
  br label %if.end5.i.i

if.end5.i.i:                                      ; preds = %if.else.i.i, %if.then3.i.i
  tail call void @_ZN3net25QuicStreamSequencerBuffer5ClearEv(ptr noundef nonnull align 8 dereferenceable(120) %buffered_frames_.i)
  br label %return

return:                                           ; preds = %if.end5.i.i, %lor.lhs.false.i.i, %if.end, %entry
  ret void
}